; Function Attrs: nounwind uwtable
define hidden void @zim_Phar___destruct(ptr noundef readonly captures(none) %0, ptr readnone captures(none) %1) #0 {
  %3 = getelementptr inbounds nuw i8, ptr %0, i64 44
  %4 = load i32, ptr %3, align 4, !tbaa !8
  %.not = icmp eq i32 %4, 0
  br i1 %.not, label %.critedge, label %5, !prof !105

5:                                                ; preds = %2
  tail call void @zend_wrong_parameters_none_error() #20
  %6 = load ptr, ptr getelementptr inbounds nuw (i8, ptr @executor_globals, i64 960), align 8, !tbaa !9
  %7 = icmp ne ptr %6, null
  tail call void @llvm.assume(i1 %7)
  br label %23

.critedge:                                        ; preds = %2
  %8 = getelementptr inbounds nuw i8, ptr %0, i64 32
  %9 = load ptr, ptr %8, align 8, !tbaa !8
  %10 = getelementptr inbounds nuw i8, ptr %9, i64 24
  %11 = load ptr, ptr %10, align 8, !tbaa !109
  %12 = load i32, ptr %11, align 8, !tbaa !112
  %13 = sext i32 %12 to i64
  %14 = sub nsw i64 0, %13
  %15 = getelementptr inbounds i8, ptr %9, i64 %14
  %16 = load ptr, ptr %15, align 8, !tbaa !8
  %.not7 = icmp eq ptr %16, null
  br i1 %.not7, label %23, label %17

17:                                               ; preds = %.critedge
  %18 = getelementptr inbounds nuw i8, ptr %16, i64 316
  %19 = load i16, ptr %18, align 4
  %20 = and i16 %19, 256
  %.not8 = icmp eq i16 %20, 0
  br i1 %.not8, label %23, label %21

21:                                               ; preds = %17
  %22 = tail call i32 @zend_hash_str_del(ptr noundef nonnull @phar_globals, ptr noundef nonnull %16, i64 noundef 8) #20
  br label %23

23:                                               ; preds = %.critedge, %17, %21, %5
  ret void
}